; Function Attrs: nounwind uwtable
define hidden ptr @lexbor_mem_chunk_init(ptr nocapture noundef readonly %0, ptr nocapture noundef writeonly %1, i64 noundef %2) local_unnamed_addr #0 {
  %.biased.i = add i64 %2, 7
  %4 = and i64 %.biased.i, -8
  %5 = getelementptr inbounds i8, ptr %0, i64 16
  %6 = load i64, ptr %5, align 8
  %7 = icmp ugt i64 %4, %6
  %8 = xor i64 %4, -1
  %9 = icmp ugt i64 %6, %8
  %10 = select i1 %9, i64 0, i64 %6
  %spec.select = add i64 %4, %10
  %.sink = select i1 %7, i64 %spec.select, i64 %6
  %11 = getelementptr inbounds i8, ptr %1, i64 16
  store i64 %.sink, ptr %11, align 8
  %12 = getelementptr inbounds i8, ptr %1, i64 8
  store i64 0, ptr %12, align 8
  %13 = tail call ptr @lexbor_malloc(i64 noundef %.sink) #6
  store ptr %13, ptr %1, align 8
  ret ptr %13
}